target datalayout = "e-m:e-p270:32:32-p271:32:32-p272:64:64-i64:64-i128:128-f80:128-n8:16:32:64-S128"
target triple = "x86_64-pc-linux-gnu"

%struct.AVFormatContext = type { ptr, ptr, ptr, ptr, ptr, i32, i32, ptr, i32, ptr, i32, ptr, ptr, i64, i64, i64, i32, i32, i32, i64, i64, ptr, i32, i32, ptr, i32, i32, i32, i32, ptr, i64, i32, i32, %struct.AVIOInterruptCB, i32, i32, i32, i32, i64, i32, i32, i32, i32, i32, i32, i32, i32, i32, i32, i32, i32, i64, i32, i32, i32, i32, i32, ptr, ptr, ptr, ptr, i32, ptr, ptr, ptr, ptr, i32, ptr, ptr, i64, ptr, ptr, ptr, i64 }
%struct.AVIOInterruptCB = type { ptr, ptr }
%struct.HLSContext = type { ptr, i64, i32, i64, i64, i32, i32, i32, i32, ptr, ptr, i32, i32, i32, i32, i32, i64, i64, ptr, ptr, ptr, ptr, i32, ptr, ptr, ptr, ptr, i32, ptr, [4097 x i8], [4097 x i8], [33 x i8], [33 x i8], ptr, ptr, ptr, ptr, i32, ptr, i32, i32, ptr, i32, ptr, ptr, ptr, i32, i32, ptr, ptr, ptr, i64, i32, ptr, i32, i32 }

@.str.154 = private unnamed_addr constant [30 x i8] c"Assertion %s failed at %s:%d\0A\00", align 1
@.str.155 = private unnamed_addr constant [17 x i8] c"http_url_context\00", align 1
@.str.156 = private unnamed_addr constant [21 x i8] c"libavformat/hlsenc.c\00", align 1

; Function Attrs: nounwind uwtable
define internal i32 @hlsenc_io_close(ptr noundef %0, ptr noundef %1, ptr noundef %2) #0 {
  %4 = alloca i32, align 4
  %5 = alloca ptr, align 8
  %6 = alloca ptr, align 8
  %7 = alloca ptr, align 8
  %8 = alloca ptr, align 8
  %9 = alloca i32, align 4
  %10 = alloca i32, align 4
  %11 = alloca i32, align 4
  %12 = alloca ptr, align 8
  store ptr %0, ptr %5, align 8, !tbaa !4
  store ptr %1, ptr %6, align 8, !tbaa !157
  store ptr %2, ptr %7, align 8, !tbaa !73
  call void @llvm.lifetime.start.p0(i64 8, ptr %8) #15
  %13 = load ptr, ptr %5, align 8, !tbaa !4
  %14 = getelementptr inbounds nuw %struct.AVFormatContext, ptr %13, i32 0, i32 3
  %15 = load ptr, ptr %14, align 8, !tbaa !9
  store ptr %15, ptr %8, align 8, !tbaa !26
  call void @llvm.lifetime.start.p0(i64 4, ptr %9) #15
  %16 = load ptr, ptr %7, align 8, !tbaa !73
  %17 = icmp ne ptr %16, null
  br i1 %17, label %18, label %21

18:                                               ; preds = %3
  %19 = load ptr, ptr %7, align 8, !tbaa !73
  %20 = call i32 @ff_is_http_proto(ptr noundef %19)
  br label %22

21:                                               ; preds = %3
  br label %22

22:                                               ; preds = %21, %18
  %23 = phi i32 [ %20, %18 ], [ 0, %21 ]
  store i32 %23, ptr %9, align 4, !tbaa !30
  call void @llvm.lifetime.start.p0(i64 4, ptr %10) #15
  store i32 0, ptr %10, align 4, !tbaa !30
  %24 = load ptr, ptr %6, align 8, !tbaa !157
  %25 = load ptr, ptr %24, align 8, !tbaa !156
  %26 = icmp ne ptr %25, null
  br i1 %26, label %29, label %27

27:                                               ; preds = %22
  %28 = load i32, ptr %10, align 4, !tbaa !30
  store i32 %28, ptr %4, align 4
  store i32 1, ptr %11, align 4
  br label %68

29:                                               ; preds = %22
  %30 = load i32, ptr %9, align 4, !tbaa !30
  %31 = icmp ne i32 %30, 0
  br i1 %31, label %32, label %47

32:                                               ; preds = %29
  %33 = load ptr, ptr %8, align 8, !tbaa !26
  %34 = getelementptr inbounds nuw %struct.HLSContext, ptr %33, i32 0, i32 47
  %35 = load i32, ptr %34, align 4, !tbaa !159
  %36 = icmp ne i32 %35, 0
  br i1 %36, label %37, label %47

37:                                               ; preds = %32
  %38 = load ptr, ptr %8, align 8, !tbaa !26
  %39 = getelementptr inbounds nuw %struct.HLSContext, ptr %38, i32 0, i32 28
  %40 = load ptr, ptr %39, align 8, !tbaa !107
  %41 = icmp ne ptr %40, null
  br i1 %41, label %47, label %42

42:                                               ; preds = %37
  %43 = load ptr, ptr %8, align 8, !tbaa !26
  %44 = getelementptr inbounds nuw %struct.HLSContext, ptr %43, i32 0, i32 22
  %45 = load i32, ptr %44, align 8, !tbaa !108
  %46 = icmp ne i32 %45, 0
  br i1 %46, label %47, label %51

47:                                               ; preds = %42, %37, %32, %29
  %48 = load ptr, ptr %5, align 8, !tbaa !4
  %49 = load ptr, ptr %6, align 8, !tbaa !157
  %50 = call i32 @ff_format_io_close(ptr noundef %48, ptr noundef %49)
  br label %66

51:                                               ; preds = %42
  call void @llvm.lifetime.start.p0(i64 8, ptr %12) #15
  %52 = load ptr, ptr %6, align 8, !tbaa !157
  %53 = load ptr, ptr %52, align 8, !tbaa !156
  %54 = call ptr @ffio_geturlcontext(ptr noundef %53)
  store ptr %54, ptr %12, align 8, !tbaa !160
  br label %55

55:                                               ; preds = %51
  %56 = load ptr, ptr %12, align 8, !tbaa !160
  %57 = icmp ne ptr %56, null
  br i1 %57, label %59, label %58

58:                                               ; preds = %55
  call void (ptr, i32, ptr, ...) @av_log(ptr noundef null, i32 noundef 0, ptr noundef @.str.154, ptr noundef @.str.155, ptr noundef @.str.156, i32 noundef 324)
  call void @abort() #18
  unreachable

59:                                               ; preds = %55
  br label %60

60:                                               ; preds = %59
  br label %61

61:                                               ; preds = %60
  %62 = load ptr, ptr %6, align 8, !tbaa !157
  %63 = load ptr, ptr %62, align 8, !tbaa !156
  call void @avio_flush(ptr noundef %63)
  %64 = load ptr, ptr %12, align 8, !tbaa !160
  %65 = call i32 @ffurl_shutdown(ptr noundef %64, i32 noundef 2)
  store i32 %65, ptr %10, align 4, !tbaa !30
  call void @llvm.lifetime.end.p0(i64 8, ptr %12) #15
  br label %66

66:                                               ; preds = %61, %47
  %67 = load i32, ptr %10, align 4, !tbaa !30
  store i32 %67, ptr %4, align 4
  store i32 1, ptr %11, align 4
  br label %68

68:                                               ; preds = %66, %27
  call void @llvm.lifetime.end.p0(i64 4, ptr %10) #15
  call void @llvm.lifetime.end.p0(i64 4, ptr %9) #15
  call void @llvm.lifetime.end.p0(i64 8, ptr %8) #15
  %69 = load i32, ptr %4, align 4
  ret i32 %69
}