; Function Attrs: nounwind uwtable
define internal fastcc i32 @hlsenc_io_close(ptr noundef %0, ptr noundef %1, ptr noundef %2) unnamed_addr #0 {
  %4 = getelementptr inbounds nuw i8, ptr %0, i64 24
  %5 = load ptr, ptr %4, align 8, !tbaa !4
  %.not = icmp eq ptr %2, null
  br i1 %.not, label %.thread, label %6

6:                                                ; preds = %3
  %7 = tail call i32 @ff_is_http_proto(ptr noundef nonnull %2) #17
  %8 = load ptr, ptr %1, align 8, !tbaa !178
  %.not20 = icmp eq ptr %8, null
  br i1 %.not20, label %28, label %10

.thread:                                          ; preds = %3
  %9 = load ptr, ptr %1, align 8, !tbaa !178
  %.not2027 = icmp eq ptr %9, null
  br i1 %.not2027, label %28, label %.thread29

10:                                               ; preds = %6
  %11 = icmp eq i32 %7, 0
  br i1 %11, label %.thread29, label %12

12:                                               ; preds = %10
  %13 = getelementptr inbounds nuw i8, ptr %5, i64 8564
  %14 = load i32, ptr %13, align 4, !tbaa !174
  %.not22 = icmp eq i32 %14, 0
  br i1 %.not22, label %.thread29, label %15

15:                                               ; preds = %12
  %16 = getelementptr inbounds nuw i8, ptr %5, i64 192
  %17 = load ptr, ptr %16, align 8, !tbaa !100
  %.not23 = icmp eq ptr %17, null
  br i1 %.not23, label %18, label %.thread29

18:                                               ; preds = %15
  %19 = getelementptr inbounds nuw i8, ptr %5, i64 144
  %20 = load i32, ptr %19, align 8, !tbaa !101
  %.not24 = icmp eq i32 %20, 0
  br i1 %.not24, label %22, label %.thread29

.thread29:                                        ; preds = %.thread, %18, %15, %12, %10
  %21 = tail call i32 @ff_format_io_close(ptr noundef nonnull %0, ptr noundef nonnull %1) #17
  br label %28

22:                                               ; preds = %18
  %23 = tail call ptr @ffio_geturlcontext(ptr noundef nonnull %8) #17
  %.not25 = icmp eq ptr %23, null
  br i1 %.not25, label %24, label %25

24:                                               ; preds = %22
  tail call void (ptr, i32, ptr, ...) @av_log(ptr noundef null, i32 noundef 0, ptr noundef nonnull @.str.154, ptr noundef nonnull @.str.155, ptr noundef nonnull @.str.156, i32 noundef 324) #17
  tail call void @abort() #20
  unreachable

25:                                               ; preds = %22
  %26 = load ptr, ptr %1, align 8, !tbaa !178
  tail call void @avio_flush(ptr noundef %26) #17
  %27 = tail call i32 @ffurl_shutdown(ptr noundef nonnull %23, i32 noundef 2) #17
  br label %28

28:                                               ; preds = %.thread, %.thread29, %25, %6
  %.0 = phi i32 [ 0, %6 ], [ 0, %.thread29 ], [ %27, %25 ], [ 0, %.thread ]
  ret i32 %.0
}